target datalayout = "e-m:e-p270:32:32-p271:32:32-p272:64:64-i64:64-i128:128-f80:128-n8:16:32:64-S128"
target triple = "x86_64-pc-linux-gnu"

@_ZN4base18StatisticsRecorder5lock_E = global ptr null, align 8

; Function Attrs: mustprogress uwtable
define void @_ZN4base18StatisticsRecorder32ImportGlobalPersistentHistogramsEv() #0 align 2 {
  %1 = alloca ptr, align 8
  %2 = load ptr, ptr @_ZN4base18StatisticsRecorder5lock_E, align 8, !tbaa !31
  %3 = icmp eq ptr %2, null
  br i1 %3, label %4, label %5

4:                                                ; preds = %0
  br label %12

5:                                                ; preds = %0
  call void @llvm.lifetime.start.p0(i64 8, ptr %1) #17
  %6 = call noundef ptr @_ZN4base24GlobalHistogramAllocator3GetEv()
  store ptr %6, ptr %1, align 8, !tbaa !147
  %7 = load ptr, ptr %1, align 8, !tbaa !147
  %8 = icmp ne ptr %7, null
  br i1 %8, label %9, label %11

9:                                                ; preds = %5
  %10 = load ptr, ptr %1, align 8, !tbaa !147
  call void @_ZN4base24GlobalHistogramAllocator36ImportHistogramsToStatisticsRecorderEv(ptr noundef nonnull align 8 dereferenceable(192) %10)
  br label %11

11:                                               ; preds = %9, %5
  call void @llvm.lifetime.end.p0(i64 8, ptr %1) #17
  br label %12

12:                                               ; preds = %11, %4
  ret void
}