; Function Attrs: mustprogress uwtable
define void @_ZN4base18StatisticsRecorder32ImportGlobalPersistentHistogramsEv() local_unnamed_addr #0 align 2 {
  %1 = load ptr, ptr @_ZN4base18StatisticsRecorder5lock_E, align 8, !tbaa !26
  %2 = icmp eq ptr %1, null
  br i1 %2, label %6, label %3

3:                                                ; preds = %0
  %4 = tail call noundef ptr @_ZN4base24GlobalHistogramAllocator3GetEv()
  %.not = icmp eq ptr %4, null
  br i1 %.not, label %6, label %5

5:                                                ; preds = %3
  tail call void @_ZN4base24GlobalHistogramAllocator36ImportHistogramsToStatisticsRecorderEv(ptr noundef nonnull align 8 dereferenceable(192) %4)
  br label %6

6:                                                ; preds = %3, %5, %0
  ret void
}